!_mdopen!

0000             030f001e  sub     r15,#%001e
0004     5cf90b0280000018  ldm     <<%0>>%0018(r15),r11,#3
000c             5df60004  ldl     |<<%0>>%04|(r15),rr6
0010         61028100002c  ld      r2,<<%1>>%002c
0016             07020001  and     r2,#%0001
001a                 8d24  test    r2
001c         5e0e8000050a  jp      nz,<<%0>>%050a
0022                 bdc0  ldk     r12,#0
0024                 a1c3  ld      r3,r12
0026             19020028  mult    rr2,#%0028
002a         14040100007e  ldl     rr4,#%0100007e
0030                 8135  add     r5,r3
0032                 a1c2  ld      r2,r12
0034             b3290003  sla     r2,#3
0038         14060100011e  ldl     rr6,#%0100011e
003e                 8127  add     r7,r2
0040                 1d64  ldl     @rr6,rr4
0042                 a1c2  ld      r2,r12
0044             b3290003  sla     r2,#3
0048         140401000122  ldl     rr4,#%01000122
004e                 8125  add     r5,r2
0050                 0d48  clr     @rr4
0052                 a1c2  ld      r2,r12
0054             b3290003  sla     r2,#3
0058         140401000124  ldl     rr4,#%01000124
005e                 8125  add     r5,r2
0060             0d450001  ld      @rr4,#%0001
0064                 a1c3  ld      r3,r12
0066             19020028  mult    rr2,#%0028
006a         14040100007e  ldl     rr4,#%0100007e
0070                 8135  add     r5,r3
0072                 a1c3  ld      r3,r12
0074             19020028  mult    rr2,#%0028
0078         14060100008c  ldl     rr6,#%0100008c
007e                 8137  add     r7,r3
0080                 1d64  ldl     @rr6,rr4
0082                 a1c3  ld      r3,r12
0084             19020028  mult    rr2,#%0028
0088         140601000088  ldl     rr6,#%01000088
008e                 8137  add     r7,r3
0090                 1d64  ldl     @rr6,rr4
0092                 a1c2  ld      r2,r12
0094                 81c2  add     r2,r12
0096         14040100014a  ldl     rr4,#%0100014a
009c                 8125  add     r5,r2
009e                 0d48  clr     @rr4
00a0                 a9c0  inc     r12,#1
00a2             0b0c0004  cp      r12,#%0004
00a6                 e1be  jr      lt,%0024
00a8         140601000172  ldl     rr6,#%01000172
00ae         5f0080000000  call    <<%0>>%0000
00b4             5df2000a  ldl     |<<%0>>%0a|(r15),rr2
00b8                 bdc0  ldk     r12,#0
00ba                 a1c2  ld      r2,r12
00bc             b3290004  sla     r2,#4
00c0         140401000174  ldl     rr4,#%01000174
00c6                 8125  add     r5,r2
00c8             0d45ffff  ld      @rr4,#%ffff
00cc                 a1c2  ld      r2,r12
00ce             b3290004  sla     r2,#4
00d2         140401000176  ldl     rr4,#%01000176
00d8                 8125  add     r5,r2
00da         1402ffffffff  ldl     rr2,#%ffffffff
00e0                 1d42  ldl     @rr4,rr2
00e2                 a1c2  ld      r2,r12
00e4             b3290004  sla     r2,#4
00e8         14040100017a  ldl     rr4,#%0100017a
00ee                 8125  add     r5,r2
00f0         1402ffffffff  ldl     rr2,#%ffffffff
00f6                 1d42  ldl     @rr4,rr2
00f8                 a1c2  ld      r2,r12
00fa             b3290004  sla     r2,#4
00fe         14040100017e  ldl     rr4,#%0100017e
0104                 8125  add     r5,r2
0106             0d45ffff  ld      @rr4,#%ffff
010a                 a1c2  ld      r2,r12
010c             b3290004  sla     r2,#4
0110         140401000180  ldl     rr4,#%01000180
0116                 8125  add     r5,r2
0118             0d45ffff  ld      @rr4,#%ffff
011c                 a1c2  ld      r2,r12
011e             b3290004  sla     r2,#4
0122         140401000182  ldl     rr4,#%01000182
0128                 8125  add     r5,r2
012a             0d45ffff  ld      @rr4,#%ffff
012e                 a9c0  inc     r12,#1
0130             0b0c0004  cp      r12,#%0004
0134                 e1c2  jr      lt,%00ba
0136     4d0581000172ffff  ld      %01000172,#%ffff
013e             210780f0  ld      r7,#%80f0
0142             2106f1f1  ld      r6,#%f1f1
0146                 3f76  out     @r7,r6
0148             4df80008  clr     |%00000008|(r15)
014c             69f00008  inc     |%00000008|(r15),#1
0150         4df10008ffff  cp      |%00000008|(r15),#%ffff
0156                 e7fa  jr      c,%014c
0158             54f6000a  ldl     rr6,|%0000000a|(r15)
015c             b36dfff0  sral    rr6,#16
0160             070700ff  and     r7,#%00ff
0164                 a176  ld      r6,r7
0166             210780f0  ld      r7,#%80f0
016a                 3f76  out     @r7,r6
016c             4df80008  clr     |%00000008|(r15)
0170             69f00008  inc     |%00000008|(r15),#1
0174         4df10008ffff  cp      |%00000008|(r15),#%ffff
017a                 e7fa  jr      c,%0170
017c             61f6000c  ld      r6,|%0000000c|(r15)
0180             210780f0  ld      r7,#%80f0
0184                 3f76  out     @r7,r6
0186                 bdc0  ldk     r12,#0
0188                 bdd0  ldk     r13,#0
018a         4d0481000172  test    %01000172
0190                 e616  jr      z,%01be
0192             4df80008  clr     |%00000008|(r15)
0196             69f00008  inc     |%00000008|(r15),#1
019a         4df10008ffff  cp      |%00000008|(r15),#%ffff
01a0                 e7fa  jr      c,%0196
01a2                 a9c0  inc     r12,#1
01a4             0b0c00b4  cp      r12,#%00b4
01a8                 e1f0  jr      lt,%018a
01aa         1406010001b4  ldl     rr6,#%010001b4
01b0         610581000172  ld      r5,%01000172
01b6         5f0080000000  call    %00000000
01bc                 a9d0  inc     r13,#1
01be                 8dd4  test    r13
01c0                 eebe  jr      nz,%013e
01c2             210780f0  ld      r7,#%80f0
01c6             21061d1d  ld      r6,#%1d1d
01ca                 3f76  out     @r7,r6
01cc             4df80008  clr     |%00000008|(r15)
01d0             69f00008  inc     |%00000008|(r15),#1
01d4         4df10008ffff  cp      |%00000008|(r15),#%ffff
01da                 e7fa  jr      c,%01d0
01dc             4df80008  clr     |%00000008|(r15)
01e0             69f00008  inc     |%00000008|(r15),#1
01e4         4df10008ffff  cp      |%00000008|(r15),#%ffff
01ea                 e7fa  jr      c,%01e0
01ec         610281000172  ld      r2,%01000172
01f2         6f028100002a  ld      %0100002a,r2
01f8             0702ff00  and     r2,#%ff00
01fc             0b020100  cp      r2,#%0100
0200                 ee04  jr      nz,%020a
0202         4d0881000028  clr     %01000028
0208                 e804  jr      %0212
020a     4d05810000280001  ld      <<%1>>%0028,#%0001
0212         4d0881000172  clr     <<%1>>%0172
0218         4d0481000028  test    <<%1>>%0028
021e                 ee24  jr      nz,%0268
0220                 bdc0  ldk     r12,#0
0222             0b0c0004  cp      r12,#%0004
0226                 e943  jr      ge,%02ae
0228                 a1c3  ld      r3,r12
022a             1902000c  mult    rr2,#%000c
022e         61328100017e  ld      r2,<<%1>>%017e(r3)
0234             07021f00  and     r2,#%1f00
0238                 8d24  test    r2
023a                 e608  jr      z,%024c
023c                 a1c3  ld      r3,r12
023e             1902000c  mult    rr2,#%000c
0242         613281000174  ld      r2,<<%1>>%0174(r3)
0248                 a72f  bit     r2,#15
024a                 e60c  jr      z,%0264
024c         61028100013e  ld      r2,<<%1>>%013e
0252                 8122  add     r2,r2
0254         140401000140  ldl     rr4,#%01000140
025a                 8125  add     r5,r2
025c                 2f4c  ld      @rr4,r12
025e         69008100013e  inc     <<%1>>%013e,#1
0264                 a9c0  inc     r12,#1
0266                 e8dd  jr      %0222
0268                 bdc0  ldk     r12,#0
026a                 a1c2  ld      r2,r12
026c             b3290004  sla     r2,#4
0270         612381000182  ld      r3,<<%1>>%0182(r2)
0276             07031f00  and     r3,#%1f00
027a                 8d34  test    r3
027c                 e608  jr      z,%028e
027e                 a1c2  ld      r2,r12
0280             b3290004  sla     r2,#4
0284         612381000174  ld      r3,<<%1>>%0174(r2)
028a                 a73f  bit     r3,#15
028c                 e60c  jr      z,%02a6
028e         61028100013e  ld      r2,<<%1>>%013e
0294                 8122  add     r2,r2
0296         140401000140  ldl     rr4,#%01000140
029c                 8125  add     r5,r2
029e                 2f4c  ld      @rr4,r12
02a0         69008100013e  inc     <<%1>>%013e,#1
02a6                 a9c0  inc     r12,#1
02a8             0b0c0004  cp      r12,#%0004
02ac                 e1de  jr      lt,%026a
02ae             4df80010  clr     |<<%0>>%10|(r15)
02b2         4d0881000172  clr     <<%1>>%0172
02b8                 bdc0  ldk     r12,#0
02ba         5e088000043e  jp      <<%0>>%043e
02c0                 a1c2  ld      r2,r12
02c2                 81c2  add     r2,r12
02c4         612381000140  ld      r3,<<%1>>%0140(r2)
02ca             6ff3000e  ld      |<<%0>>%0e|(r15),r3
02ce                 a132  ld      r2,r3
02d0                 8132  add     r2,r3
02d2                 bd43  ldk     r4,#3
02d4             b34b0200  sda     r4,r2
02d8             45f40010  or      r4,|<<%0>>%10|(r15)
02dc             6ff40010  ld      |<<%0>>%10|(r15),r4
02e0             61f2000e  ld      r2,|<<%0>>%0e|(r15)
02e4                 8122  add     r2,r2
02e6                 bd41  ldk     r4,#1
02e8             b34b0200  sda     r4,r2
02ec         450481000172  or      r4,<<%1>>%0172
02f2         6f0481000172  ld      <<%1>>%0172,r4
02f8         4d0481000028  test    <<%1>>%0028
02fe                 ee4e  jr      nz,%039c
0300             61f2000e  ld      r2,|<<%0>>%0e|(r15)
0304             b3290004  sla     r2,#4
0308         140600000000  ldl     rr6,#%00000000
030e                 8127  add     r7,r2
0310         5f0080000000  call    <<%0>>%0000
0316             5df20014  ldl     |<<%0>>%14|(r15),rr2
031a             61f3000e  ld      r3,|<<%0>>%0e|(r15)
031e             1902000c  mult    rr2,#%000c
0322         140401000174  ldl     rr4,#%01000174
0328                 8135  add     r5,r3
032a             0d450001  ld      @rr4,#%0001
032e             61f3000e  ld      r3,|<<%0>>%0e|(r15)
0332             1902000c  mult    rr2,#%000c
0336         140401000176  ldl     rr4,#%01000176
033c                 8135  add     r5,r3
033e                 0d48  clr     @rr4
0340             61f3000e  ld      r3,|<<%0>>%0e|(r15)
0344             1902000c  mult    rr2,#%000c
0348         140401000178  ldl     rr4,#%01000178
034e                 8135  add     r5,r3
0350                 0d48  clr     @rr4
0352         140200000014  ldl     rr2,#%00000014
0358                 81f3  add     r3,r15
035a             31240002  ld      r4,rr2(#%0002)
035e             61f3000e  ld      r3,|<<%0>>%0e|(r15)
0362             1902000c  mult    rr2,#%000c
0366         14060100017a  ldl     rr6,#%0100017a
036c                 8137  add     r7,r3
036e                 2f64  ld      @rr6,r4
0370             61f3000e  ld      r3,|<<%0>>%0e|(r15)
0374             1902000c  mult    rr2,#%000c
0378         14040100017c  ldl     rr4,#%0100017c
037e                 8135  add     r5,r3
0380             61f20014  ld      r2,|<<%0>>%14|(r15)
0384             070200ff  and     r2,#%00ff
0388                 2f42  ld      @rr4,r2
038a             61f3000e  ld      r3,|<<%0>>%0e|(r15)
038e             1902000c  mult    rr2,#%000c
0392         14040100017e  ldl     rr4,#%0100017e
0398                 8135  add     r5,r3
039a                 e84f  jr      %043a
039c             61f3000e  ld      r3,|<<%0>>%0e|(r15)
03a0             19020014  mult    rr2,#%0014
03a4         140600000000  ldl     rr6,#%00000000
03aa                 8137  add     r7,r3
03ac         5f0080000000  call    <<%0>>%0000
03b2             5df20014  ldl     |<<%0>>%14|(r15),rr2
03b6             61f2000e  ld      r2,|<<%0>>%0e|(r15)
03ba             b3290004  sla     r2,#4
03be         140401000174  ldl     rr4,#%01000174
03c4                 8125  add     r5,r2
03c6             0d450001  ld      @rr4,#%0001
03ca             61f2000e  ld      r2,|<<%0>>%0e|(r15)
03ce             b3290004  sla     r2,#4
03d2         140401000176  ldl     rr4,#%01000176
03d8                 8125  add     r5,r2
03da                 9222  subl    rr2,rr2
03dc                 1d42  ldl     @rr4,rr2
03de             61f2000e  ld      r2,|<<%0>>%0e|(r15)
03e2             b3290004  sla     r2,#4
03e6         14040100017a  ldl     rr4,#%0100017a
03ec                 8125  add     r5,r2
03ee                 9222  subl    rr2,rr2
03f0                 1d42  ldl     @rr4,rr2
03f2         140200000014  ldl     rr2,#%00000014
03f8                 81f3  add     r3,r15
03fa             31240002  ld      r4,rr2(#%0002)
03fe             61f5000e  ld      r5,|<<%0>>%0e|(r15)
0402             b3590004  sla     r5,#4
0406         14020100017e  ldl     rr2,#%0100017e
040c                 8153  add     r3,r5
040e                 2f24  ld      @rr2,r4
0410             61f2000e  ld      r2,|<<%0>>%0e|(r15)
0414             b3290004  sla     r2,#4
0418         140401000180  ldl     rr4,#%01000180
041e                 8125  add     r5,r2
0420             61f20014  ld      r2,|<<%0>>%14|(r15)
0424             070200ff  and     r2,#%00ff
0428                 2f42  ld      @rr4,r2
042a             61f2000e  ld      r2,|<<%0>>%0e|(r15)
042e             b3290004  sla     r2,#4
0432         140401000182  ldl     rr4,#%01000182
0438                 8125  add     r5,r2
043a                 0d48  clr     @rr4
043c                 a9c0  inc     r12,#1
043e         4b0c8100013e  cp      r12,<<%1>>%013e
0444         5e01800002c0  jp      lt,<<%0>>%02c0
044a             210780f0  ld      r7,#%80f0
044e                 8366  sub     r6,r6
0450                 3f76  out     @r7,r6
0452         610281000172  ld      r2,<<%1>>%0172
0458             47f20010  and     r2,|<<%0>>%10|(r15)
045c                 eefa  jr      nz,%0452
045e                 bdc0  ldk     r12,#0
0460                 e84d  jr      %04fc
0462                 a1c2  ld      r2,r12
0464                 81c2  add     r2,r12
0466         612381000140  ld      r3,<<%1>>%0140(r2)
046c             6ff3000e  ld      |<<%0>>%0e|(r15),r3
0470         4d0481000028  test    <<%1>>%0028
0476                 ee11  jr      nz,%049a
0478                 a135  ld      r5,r3
047a             1904000c  mult    rr4,#%000c
047e         61528100017e  ld      r2,<<%1>>%017e(r5)
0484                 a12b  ld      r11,r2
0486             61f5000e  ld      r5,|<<%0>>%0e|(r15)
048a             1904000c  mult    rr4,#%000c
048e         615281000174  ld      r2,<<%1>>%0174(r5)
0494             6ff20012  ld      |<<%0>>%12|(r15),r2
0498                 e811  jr      %04bc
049a             61f2000e  ld      r2,|<<%0>>%0e|(r15)
049e             b3290004  sla     r2,#4
04a2         612381000182  ld      r3,<<%1>>%0182(r2)
04a8                 a13b  ld      r11,r3
04aa             61f2000e  ld      r2,|<<%0>>%0e|(r15)
04ae             b3290004  sla     r2,#4
04b2         612381000174  ld      r3,<<%1>>%0174(r2)
04b8             6ff30012  ld      |<<%0>>%12|(r15),r3
04bc                 a1b2  ld      r2,r11
04be             07021f00  and     r2,#%1f00
04c2                 8d24  test    r2
04c4                 e603  jr      z,%04cc
04c6             67ff0012  bit     |<<%0>>%12|(r15),#15
04ca                 e617  jr      z,%04fa
04cc         4d0481000028  test    <<%1>>%0028
04d2                 ee09  jr      nz,%04e6
04d4             61f2000e  ld      r2,|<<%0>>%0e|(r15)
04d8             b3290004  sla     r2,#4
04dc         14040000000e  ldl     rr4,#%0000000e
04e2                 8125  add     r5,r2
04e4                 e808  jr      %04f6
04e6             61f3000e  ld      r3,|<<%0>>%0e|(r15)
04ea             19020014  mult    rr2,#%0014
04ee         140400000012  ldl     rr4,#%00000012
04f4                 8135  add     r5,r3
04f6             0d450001  ld      @rr4,#%0001
04fa                 a9c0  inc     r12,#1
04fc         4b0c8100013e  cp      r12,<<%1>>%013e
0502                 e1af  jr      lt,%0462
0504         65008100002c  set     <<%1>>%002c,#0
050a             61f20006  ld      r2,|<<%0>>%06|(r15)
050e             070200f0  and     r2,#%00f0
0512             b329fffc  sra     r2,#4
0516             b3290003  sla     r2,#3
051a         612381000152  ld      r3,<<%1>>%0152(r2)
0520                 8d34  test    r3
0522                 ee2c  jr      nz,%057c
0524             61f20006  ld      r2,|<<%0>>%06|(r15)
0528             070200f0  and     r2,#%00f0
052c             b329fffc  sra     r2,#4
0530             b3290003  sla     r2,#3
0534         612381000154  ld      r3,<<%1>>%0154(r2)
053a                 8d34  test    r3
053c                 ee1f  jr      nz,%057c
053e             61f20006  ld      r2,|<<%0>>%06|(r15)
0542             070200f0  and     r2,#%00f0
0546             b329fffc  sra     r2,#4
054a                 a0a2  ldb     rh2,rl2
054c                 8ca8  clrb    rl2
054e         140400000000  ldl     rr4,#%00000000
0554                 8125  add     r5,r2
0556             5df40000  ldl     |<<%0>>%00|(r15),rr4
055a             61f70006  ld      r7,|<<%0>>%06|(r15)
055e             070700f0  and     r7,#%00f0
0562             05070400  or      r7,#%0400
0566         140401000152  ldl     rr4,#%01000152
056c         14020000074e  ldl     rr2,#%0000074e
0572         5f0080000000  call    <<%0>>%0000
0578                 8d24  test    r2
057a                 ee28  jr      nz,%05cc
057c             61f20006  ld      r2,|<<%0>>%06|(r15)
0580                 a02a  ldb     rl2,rh2
0582                 b120  extsb   r2
0584             0b020004  cp      r2,#%0004
0588                 ee0c  jr      nz,%05a2
058a             61f20006  ld      r2,|<<%0>>%06|(r15)
058e             070200f0  and     r2,#%00f0
0592             b329fffc  sra     r2,#4
0596             b3290003  sla     r2,#3
059a         140401000152  ldl     rr4,#%01000152
05a0                 e80b  jr      %05b8
05a2             61f20006  ld      r2,|<<%0>>%06|(r15)
05a6             070200f0  and     r2,#%00f0
05aa             b329fffc  sra     r2,#4
05ae             b3290003  sla     r2,#3
05b2         140401000154  ldl     rr4,#%01000154
05b8                 8125  add     r5,r2
05ba             61f20006  ld      r2,|<<%0>>%06|(r15)
05be             0702000f  and     r2,#%000f
05c2                 bd31  ldk     r3,#1
05c4             b33b0200  sda     r3,r2
05c8                 0543  or      r3,@rr4
05ca                 2f43  ld      @rr4,r3
05cc     5cf10b0280000018  ldm     r11,<<%0>>%0018(r15),#3
05d4             010f001e  add     r15,#%001e
05d8                 9e08  ret



!_mdclose!

05da                 abf3  dec     r15,#4
05dc             5df60000  ldl     |<<%0>>%00|(r15),rr6
05e0             61f20002  ld      r2,|<<%0>>%02|(r15)
05e4                 a02a  ldb     rl2,rh2
05e6                 b120  extsb   r2
05e8             0b020004  cp      r2,#%0004
05ec                 ee15  jr      nz,%0618
05ee             070700f0  and     r7,#%00f0
05f2             b379fffc  sra     r7,#4
05f6             b3790003  sla     r7,#3
05fa         140201000152  ldl     rr2,#%01000152
0600                 8173  add     r3,r7
0602             61f70002  ld      r7,|<<%0>>%02|(r15)
0606             0707000f  and     r7,#%000f
060a                 bd41  ldk     r4,#1
060c             b34b0700  sda     r4,r7
0610                 8d40  com     r4
0612                 0724  and     r4,@rr2
0614                 2f24  ld      @rr2,r4
0616                 e816  jr      %0644
0618             61f20002  ld      r2,|<<%0>>%02|(r15)
061c             070200f0  and     r2,#%00f0
0620             b329fffc  sra     r2,#4
0624             b3290003  sla     r2,#3
0628         140401000154  ldl     rr4,#%01000154
062e                 8125  add     r5,r2
0630             61f20002  ld      r2,|<<%0>>%02|(r15)
0634             0702000f  and     r2,#%000f
0638                 bd31  ldk     r3,#1
063a             b33b0200  sda     r3,r2
063e                 8d30  com     r3
0640                 0743  and     r3,@rr4
0642                 2f43  ld      @rr4,r3
0644             61f20002  ld      r2,|<<%0>>%02|(r15)
0648             070200f0  and     r2,#%00f0
064c             b329fffc  sra     r2,#4
0650             b3290003  sla     r2,#3
0654         612381000152  ld      r3,<<%1>>%0152(r2)
065a                 8d34  test    r3
065c                 ee1d  jr      nz,%0698
065e             61f20002  ld      r2,|<<%0>>%02|(r15)
0662             070200f0  and     r2,#%00f0
0666             b329fffc  sra     r2,#4
066a             b3290003  sla     r2,#3
066e         612381000154  ld      r3,<<%1>>%0154(r2)
0674                 8d34  test    r3
0676                 ee10  jr      nz,%0698
0678             61f20002  ld      r2,|<<%0>>%02|(r15)
067c             070200f0  and     r2,#%00f0
0680             b329fffc  sra     r2,#4
0684             b3290003  sla     r2,#3
0688         140401000156  ldl     rr4,#%01000156
068e                 8125  add     r5,r2
0690         140200000000  ldl     rr2,#%00000000
0696                 1d42  ldl     @rr4,rr2
0698                 a9f3  inc     r15,#4
069a                 9e08  ret



!_mdioctl!

069c                 abfd  dec     r15,#14
069e     5cf90b0180000008  ldm     <<%0>>%0008(r15),r11,#2
06a6                 a15b  ld      r11,r5
06a8                 a16c  ld      r12,r6
06aa                 a171  ld      r1,r7
06ac                 a172  ld      r2,r7
06ae             070200f0  and     r2,#%00f0
06b2             b329fffc  sra     r2,#4
06b6             6ff20006  ld      |<<%0>>%06|(r15),r2
06ba                 a162  ld      r2,r6
06bc             0b066400  cp      r6,#%6400
06c0                 ee3c  jr      nz,%073a
06c2         4d0481000028  test    <<%1>>%0028
06c8                 ee17  jr      nz,%06f8
06ca             61f30006  ld      r3,|<<%0>>%06|(r15)
06ce             b3390004  sla     r3,#4
06d2         61348000000e  ld      r4,<<%0>>%000e(r3)
06d8             0b040001  cp      r4,#%0001
06dc                 ee0d  jr      nz,%06f8
06de             61f30006  ld      r3,|<<%0>>%06|(r15)
06e2             b3390004  sla     r3,#4
06e6         613480000008  ld      r4,<<%0>>%0008(r3)
06ec             b341fff5  srl     r4,#11
06f0         6f0480000028  ld      <<%0>>%0028,r4
06f6                 e825  jr      %0742
06f8     4d01810000280001  cp      <<%1>>%0028,#%0001
0700                 ee17  jr      nz,%0730
0702             61f50006  ld      r5,|<<%0>>%06|(r15)
0706             19040014  mult    rr4,#%0014
070a         615380000012  ld      r3,<<%0>>%0012(r5)
0710             0b030001  cp      r3,#%0001
0714                 ee0d  jr      nz,%0730
0716             61f50006  ld      r5,|<<%0>>%06|(r15)
071a             19040014  mult    rr4,#%0014
071e         54568000000a  ldl     rr6,<<%0>>%000a(r5)
0724             b365fff5  srll    rr6,#11
0728         6f0780000028  ld      <<%0>>%0028,r7
072e                 e809  jr      %0742
0730     4c05800000151313  ldb     %00000015,#%13
0738                 e804  jr      %0742
073a     4c05800000151616  ldb     %00000015,#%16
0742     5cf10b0180000008  ldm     r11,<<%0>>%0008(r15),#2
074a                 a9fd  inc     r15,#14
074c                 9e08  ret



!_mdstrategy!

074e             030f001a  sub     r15,#%001a
0752     5cf9090480000010  ldm     <<%0>>%0010(r15),r9,#5
075a                 946c  ldl     rr12,rr6
075c             35c2001e  ldl     rr2,rr12(#%001e)
0760                 bd20  ldk     r2,#0
0762             07030001  and     r3,#%0001
0766                 9c28  testl   rr2
0768                 ee04  jr      nz,%0772
076a             31c20014  ld      r2,rr12(#%0014)
076e                 a720  bit     r2,#0
0770                 e60b  jr      z,%0788
0772     4c05800000150e0e  ldb     %00000015,#%0e
077a                 94c6  ldl     rr6,rr12
077c         5f0080000000  call    %00000000
0782         5e088000090a  jp      %0000090a
0788             4df8000e  clr     |%0000000e|(r15)
078c                 e810  jr      %07ae
078e             61f2000e  ld      r2,|%0000000e|(r15)
0792                 8122  add     r2,r2
0794         612381000140  ld      r3,%01000140(r2)
079a             31c20012  ld      r2,rr12(#%0012)
079e             070200f0  and     r2,#%00f0
07a2             b329fffc  sra     r2,#4
07a6                 8b23  cp      r3,r2
07a8                 e608  jr      z,%07ba
07aa             69f0000e  inc     |%0000000e|(r15),#1
07ae             61f2000e  ld      r2,|%0000000e|(r15)
07b2         4b028100013e  cp      r2,%0100013e
07b8                 e1ea  jr      lt,%078e
07ba             61f2000e  ld      r2,|%0000000e|(r15)
07be         4b028100013e  cp      r2,%0100013e
07c4                 ee07  jr      nz,%07d4
07c6                 25c2  set     @rr12,#2
07c8                 94c4  ldl     rr4,rr12
07ca             01050022  add     r5,#%0022
07ce             0d450013  ld      @rr4,#%0013
07d2                 e8d3  jr      %077a
07d4             31c20012  ld      r2,rr12(#%0012)
07d8             0702000f  and     r2,#%000f
07dc             b3290004  sla     r2,#4
07e0                 a923  inc     r2,#4
07e2             31c30012  ld      r3,rr12(#%0012)
07e6             070300f0  and     r3,#%00f0
07ea             b339fffc  sra     r3,#4
07ee             b3390003  sla     r3,#3
07f2         543481000156  ldl     rr4,%01000156(r3)
07f8                 8125  add     r5,r2
07fa             35c2001a  ldl     rr2,rr12(#%001a)
07fe             31c60014  ld      r6,rr12(#%0014)
0802                 bd00  ldk     r0,#0
0804                 a161  ld      r1,r6
0806         1600000001ff  addl    rr0,#%000001ff
080c             b30dfff7  sral    rr0,#9
0810                 9602  addl    rr2,rr0
0812                 1042  cpl     rr2,@rr4
0814                 e307  jr      ule,%0824
0816                 25c2  set     @rr12,#2
0818                 94c2  ldl     rr2,rr12
081a             01030022  add     r3,#%0022
081e             0d250006  ld      @rr2,#%0006
0822                 e8ab  jr      %077a
0824             31c20012  ld      r2,rr12(#%0012)
0828             0702000f  and     r2,#%000f
082c             b3290004  sla     r2,#4
0830             31c30012  ld      r3,rr12(#%0012)
0834             070300f0  and     r3,#%00f0
0838             b339fffc  sra     r3,#4
083c             b3390003  sla     r3,#3
0840         543481000156  ldl     rr4,%01000156(r3)
0846                 8125  add     r5,r2
0848             35c2001a  ldl     rr2,rr12(#%001a)
084c                 1642  addl    rr2,@rr4
084e                 94c4  ldl     rr4,rr12
0850             01050026  add     r5,#%0026
0854                 1d42  ldl     @rr4,rr2
0856             5df2000a  ldl     |%0000000a|(r15),rr2
085a             31c20012  ld      r2,rr12(#%0012)
085e             070200f0  and     r2,#%00f0
0862             b329fffc  sra     r2,#4
0866                 a129  ld      r9,r2
0868             31c20014  ld      r2,rr12(#%0014)
086c                 94c4  ldl     rr4,rr12
086e             01050024  add     r5,#%0024
0872                 2f42  ld      @rr4,r2
0874                 7d22  ldctl   r2,fcw
0876                 7c01  di      vi
0878                 a193  ld      r3,r9
087a             19020028  mult    rr2,#%0028
087e         543481000088  ldl     rr4,%01000088(r3)
0884                 944a  ldl     rr10,rr4
0886                 e80a  jr      %089c
0888                 94a2  ldl     rr2,rr10
088a             01030026  add     r3,#%0026
088e             54f4000a  ldl     rr4,|%0000000a|(r15)
0892                 1024  cpl     rr4,@rr2
0894                 e10c  jr      lt,%08ae
0896             35a2000a  ldl     rr2,rr10(#%000a)
089a                 942a  ldl     rr10,rr2
089c                 a193  ld      r3,r9
089e             19020028  mult    rr2,#%0028
08a2         14040100007e  ldl     rr4,#%0100007e
08a8                 8135  add     r5,r3
08aa                 904a  cpl     rr10,rr4
08ac                 eeed  jr      nz,%0888
08ae                 94c2  ldl     rr2,rr12
08b0                 a939  inc     r3,#10
08b2                 1d2a  ldl     @rr2,rr10
08b4             35a2000e  ldl     rr2,rr10(#%000e)
08b8                 94c4  ldl     rr4,rr12
08ba                 a95d  inc     r5,#14
08bc                 1d42  ldl     @rr4,rr2
08be             35a2000e  ldl     rr2,rr10(#%000e)
08c2                 a939  inc     r3,#10
08c4                 1d2c  ldl     @rr2,rr12
08c6                 94a2  ldl     rr2,rr10
08c8                 a93d  inc     r3,#14
08ca                 1d2c  ldl     @rr2,rr12
08cc                 a192  ld      r2,r9
08ce             b3290003  sla     r2,#3
08d2         54248100011e  ldl     rr4,%0100011e(r2)
08d8                 a193  ld      r3,r9
08da             19020028  mult    rr2,#%0028
08de         14060100007e  ldl     rr6,#%0100007e
08e4                 8137  add     r7,r3
08e6                 9064  cpl     rr4,rr6
08e8                 ee08  jr      nz,%08fa
08ea                 a192  ld      r2,r9
08ec             b3290003  sla     r2,#3
08f0         14040100011e  ldl     rr4,#%0100011e
08f6                 8125  add     r5,r2
08f8                 1d4c  ldl     @rr4,rr12
08fa         4c0481000040  testb   %01000040
0900                 ee02  jr      nz,%0906
0902                 a197  ld      r7,r9
0904                 dff7  calr    %0918
0906                 7d22  ldctl   r2,fcw
0908                 7c05  ei      vi
090a     5cf1090480000010  ldm     r9,<<%0>>%0010(r15),#5
0912             010f001a  add     r15,#%001a
0916                 9e08  ret



!_mdstart!

0918             030f0014  sub     r15,#%0014
091c     5cf9080580000008  ldm     <<%0>>%0008(r15),r8,#6
0924                 a17d  ld      r13,r7
0926         4c0481000040  testb   <<%1>>%0040
092c         5e0e80000aee  jp      nz,<<%0>>%0aee
0932                 7d22  ldctl   r2,fcw
0934                 7c05  ei      vi
0936             6ff20004  ld      |<<%0>>%04|(r15),r2
093a                 bdc0  ldk     r12,#0
093c         5e0880000aba  jp      <<%0>>%0aba
0942                 a1d2  ld      r2,r13
0944             b3290003  sla     r2,#3
0948         54248100011e  ldl     rr4,<<%1>>%011e(r2)
094e                 944a  ldl     rr10,rr4
0950                 a1d3  ld      r3,r13
0952             19020028  mult    rr2,#%0028
0956         14060100007e  ldl     rr6,#%0100007e
095c                 8137  add     r7,r3
095e                 9064  cpl     rr4,rr6
0960         5e0680000aa2  jp      z,<<%0>>%0aa2
0966                 a1d2  ld      r2,r13
0968             b3290003  sla     r2,#3
096c         140401000122  ldl     rr4,#%01000122
0972                 8125  add     r5,r2
0974             0d450001  ld      @rr4,#%0001
0978         690081000148  inc     <<%1>>%0148,#1
097e         4d0481000028  test    <<%1>>%0028
0984                 ee41  jr      nz,%0a08
0986                 a1d3  ld      r3,r13
0988             1902000c  mult    rr2,#%000c
098c         140401000174  ldl     rr4,#%01000174
0992                 8135  add     r5,r3
0994                 9448  ldl     rr8,rr4
0996             35a20026  ldl     rr2,rr10(#%0026)
099a                 a951  inc     r5,#2
099c                 2f43  ld      @rr4,r3
099e             31a20024  ld      r2,rr10(#%0024)
09a2                 a125  ld      r5,r2
09a4                 bd40  ldk     r4,#0
09a6         1604000001ff  addl    rr4,#%000001ff
09ac             b34dfff7  sral    rr4,#9
09b0                 9482  ldl     rr2,rr8
09b2                 a933  inc     r3,#4
09b4                 2f25  ld      @rr2,r5
09b6             35a2001e  ldl     rr2,rr10(#%001e)
09ba                 9484  ldl     rr4,rr8
09bc                 a955  inc     r5,#6
09be                 2f43  ld      @rr4,r3
09c0             35a2001e  ldl     rr2,rr10(#%001e)
09c4             b325fff0  srll    rr2,#16
09c8                 bd20  ldk     r2,#0
09ca             070300ff  and     r3,#%00ff
09ce                 9484  ldl     rr4,rr8
09d0                 a957  inc     r5,#8
09d2                 2f43  ld      @rr4,r3
09d4                 27a0  bit     @rr10,#0
09d6                 e609  jr      z,%09ea
09d8             31a20024  ld      r2,rr10(#%0024)
09dc             070201ff  and     r2,#%01ff
09e0             b3290007  sla     r2,#7
09e4             6ff20006  ld      |<<%0>>%06|(r15),r2
09e8                 e802  jr      %09ee
09ea             4df80006  clr     |<<%0>>%06|(r15)
09ee                 9482  ldl     rr2,rr8
09f0                 a939  inc     r3,#10
09f2             61f40006  ld      r4,|<<%0>>%06|(r15)
09f6         450480000000  or      r4,<<%0>>%0000
09fc                 2f24  ld      @rr2,r4
09fe                 27a0  bit     @rr10,#0
0a00                 e641  jr      z,%0a84
0a02             21020110  ld      r2,#%0110
0a06                 e840  jr      %0a88
0a08                 a1d2  ld      r2,r13
0a0a             b3290004  sla     r2,#4
0a0e         140401000174  ldl     rr4,#%01000174
0a14                 8125  add     r5,r2
0a16                 9448  ldl     rr8,rr4
0a18             35a20026  ldl     rr2,rr10(#%0026)
0a1c                 a951  inc     r5,#2
0a1e                 1d42  ldl     @rr4,rr2
0a20             31a20024  ld      r2,rr10(#%0024)
0a24                 a125  ld      r5,r2
0a26                 bd40  ldk     r4,#0
0a28         1604000001ff  addl    rr4,#%000001ff
0a2e             b34dfff7  sral    rr4,#9
0a32                 9482  ldl     rr2,rr8
0a34                 a935  inc     r3,#6
0a36                 1d24  ldl     @rr2,rr4
0a38             35a2001e  ldl     rr2,rr10(#%001e)
0a3c                 9484  ldl     rr4,rr8
0a3e                 a959  inc     r5,#10
0a40                 2f43  ld      @rr4,r3
0a42             35a2001e  ldl     rr2,rr10(#%001e)
0a46             b325fff0  srll    rr2,#16
0a4a                 bd20  ldk     r2,#0
0a4c             070300ff  and     r3,#%00ff
0a50                 9484  ldl     rr4,rr8
0a52                 a95b  inc     r5,#12
0a54                 2f43  ld      @rr4,r3
0a56                 27a0  bit     @rr10,#0
0a58                 e609  jr      z,%0a6c
0a5a             31a20024  ld      r2,rr10(#%0024)
0a5e             070201ff  and     r2,#%01ff
0a62             b3290007  sla     r2,#7
0a66             6ff20006  ld      |<<%0>>%06|(r15),r2
0a6a                 e802  jr      %0a70
0a6c             4df80006  clr     |<<%0>>%06|(r15)
0a70                 9482  ldl     rr2,rr8
0a72                 a93d  inc     r3,#14
0a74             61f40006  ld      r4,|<<%0>>%06|(r15)
0a78         450480000000  or      r4,<<%0>>%0000
0a7e                 2f24  ld      @rr2,r4
0a80                 27a0  bit     @rr10,#0
0a82                 eebf  jr      nz,%0a02
0a84             21020111  ld      r2,#%0111
0a88                 2f82  ld      @rr8,r2
0a8a                 a1d2  ld      r2,r13
0a8c                 81d2  add     r2,r13
0a8e                 bd31  ldk     r3,#1
0a90             b33b0200  sda     r3,r2
0a94         450381000172  or      r3,<<%1>>%0172
0a9a         6f0381000172  ld      <<%1>>%0172,r3
0aa0                 e812  jr      %0ac6
0aa2                 a9c0  inc     r12,#1
0aa4                 a1d2  ld      r2,r13
0aa6                 a920  inc     r2,#1
0aa8         4b028100013e  cp      r2,<<%1>>%013e
0aae                 e903  jr      ge,%0ab6
0ab0                 a1d2  ld      r2,r13
0ab2                 a920  inc     r2,#1
0ab4                 e801  jr      %0ab8
0ab6                 8322  sub     r2,r2
0ab8                 a12d  ld      r13,r2
0aba         4b0c8100013e  cp      r12,<<%1>>%013e
0ac0         5e0180000942  jp      lt,<<%0>>%0942
0ac6         4d0481000148  test    <<%1>>%0148
0acc                 e60d  jr      z,%0ae8
0ace         680081000040  incb    <<%1>>%0040,#1
0ad4         610281000148  ld      r2,<<%1>>%0148
0ada         6f0280000000  ld      <<%0>>%0000,r2
0ae0             210780f0  ld      r7,#%80f0
0ae4                 8366  sub     r6,r6
0ae6                 3f76  out     @r7,r6
0ae8             61f70004  ld      r7,|<<%0>>%04|(r15)
0aec                 7d7a  ldctl   fcw,r7
0aee     5cf1080580000008  ldm     r8,<<%0>>%0008(r15),#6
0af6             010f0014  add     r15,#%0014
0afa                 9e08  ret



!_mdint!

0afc             030f001c  sub     r15,#%001c
0b00     5cf9080580000010  ldm     <<%0>>%0010(r15),r8,#6
0b08                 946c  ldl     rr12,rr6
0b0a         6b0080000000  dec     <<%0>>%0000,#1
0b10         6b0081000148  dec     <<%1>>%0148,#1
0b16     4d0580000000000b  ld      <<%0>>%0000,#%000b
0b1e     4d018100002a0204  cp      %0100002a,#%0204
0b26                 e104  jr      lt,%0b30
0b28             210780f2  ld      r7,#%80f2
0b2c                 8366  sub     r6,r6
0b2e                 3f76  out     @r7,r6
0b30             31c20020  ld      r2,rr12(#%0020)
0b34             0702e000  and     r2,#%e000
0b38             b321fff3  srl     r2,#13
0b3c             6ff2000e  ld      |%0000000e|(r15),r2
0b40             b3290003  sla     r2,#3
0b44         14040100011e  ldl     rr4,#%0100011e
0b4a                 8125  add     r5,r2
0b4c                 9448  ldl     rr8,rr4
0b4e             31820004  ld      r2,rr8(#%0004)
0b52                 8d24  test    r2
0b54                 ee0b  jr      nz,%0b6c
0b56             31c50020  ld      r5,rr12(#%0020)
0b5a         1406010001cc  ldl     rr6,#%010001cc
0b60         5f0080000000  call    %00000000
0b66         5e0880000ca4  jp      %00000ca4
0b6c         4d0481000148  test    %01000148
0b72                 ee03  jr      nz,%0b7a
0b74         4c0881000040  clrb    %01000040
0b7a                 148a  ldl     rr10,@rr8
0b7c         4d0481000028  test    %01000028
0b82                 ee0a  jr      nz,%0b98
0b84             61f3000e  ld      r3,|%0000000e|(r15)
0b88             1902000c  mult    rr2,#%000c
0b8c         613281000174  ld      r2,%01000174(r3)
0b92             6ff2000c  ld      |%0000000c|(r15),r2
0b96                 e809  jr      %0baa
0b98             61f2000e  ld      r2,|%0000000e|(r15)
0b9c             b3290004  sla     r2,#4
0ba0         612381000174  ld      r3,%01000174(r2)
0ba6             6ff3000c  ld      |%0000000c|(r15),r3
0baa             31c20020  ld      r2,rr12(#%0020)
0bae             07021f00  and     r2,#%1f00
0bb2                 8d24  test    r2
0bb4                 e603  jr      z,%0bbc
0bb6             67ff000c  bit     |%0000000c|(r15),#15
0bba                 e605  jr      z,%0bc6
0bbc                 94a2  ldl     rr2,rr10
0bbe             01030024  add     r3,#%0024
0bc2                 0d28  clr     @rr2
0bc4                 e81c  jr      %0bfe
0bc6             31c50020  ld      r5,rr12(#%0020)
0bca                 94a6  ldl     rr6,rr10
0bcc                 8344  sub     r4,r4
0bce         5f0080000000  call    %00000000
0bd4             61f2000e  ld      r2,|%0000000e|(r15)
0bd8                 8122  add     r2,r2
0bda         14040100014a  ldl     rr4,#%0100014a
0be0                 8125  add     r5,r2
0be2                 2940  inc     @rr4,#1
0be4                 2142  ld      r2,@rr4
0be6             0b020004  cp      r2,#%0004
0bea                 e908  jr      ge,%0bfc
0bec     4d018100002a0204  cp      %0100002a,#%0204
0bf4                 e150  jr      lt,%0c96
0bf6             210780f4  ld      r7,#%80f4
0bfa                 e84f  jr      %0c9a
0bfc                 25a2  set     @rr10,#2
0bfe             35a2000e  ldl     rr2,rr10(#%000e)
0c02             35a4000a  ldl     rr4,rr10(#%000a)
0c06                 a95d  inc     r5,#14
0c08                 1d42  ldl     @rr4,rr2
0c0a             35a2000a  ldl     rr2,rr10(#%000a)
0c0e             35a4000e  ldl     rr4,rr10(#%000e)
0c12                 a959  inc     r5,#10
0c14                 1d42  ldl     @rr4,rr2
0c16             31820006  ld      r2,rr8(#%0006)
0c1a                 8d24  test    r2
0c1c                 e603  jr      z,%0c24
0c1e             35a2000a  ldl     rr2,rr10(#%000a)
0c22                 e802  jr      %0c28
0c24             35a2000e  ldl     rr2,rr10(#%000e)
0c28                 1d82  ldl     @rr8,rr2
0c2a             61f3000e  ld      r3,|%0000000e|(r15)
0c2e             19020028  mult    rr2,#%0028
0c32         14040100007e  ldl     rr4,#%0100007e
0c38                 8135  add     r5,r3
0c3a                 1084  cpl     rr4,@rr8
0c3c                 ee14  jr      nz,%0c66
0c3e             31820006  ld      r2,rr8(#%0006)
0c42                 8d24  test    r2
0c44                 ee02  jr      nz,%0c4a
0c46                 bd21  ldk     r2,#1
0c48                 e801  jr      %0c4c
0c4a                 bd20  ldk     r2,#0
0c4c                 9484  ldl     rr4,rr8
0c4e                 a955  inc     r5,#6
0c50                 2f42  ld      @rr4,r2
0c52             31820006  ld      r2,rr8(#%0006)
0c56                 8d24  test    r2
0c58                 e603  jr      z,%0c60
0c5a             35a2000a  ldl     rr2,rr10(#%000a)
0c5e                 e802  jr      %0c64
0c60             35a2000e  ldl     rr2,rr10(#%000e)
0c64                 1d82  ldl     @rr8,rr2
0c66                 94a2  ldl     rr2,rr10
0c68             01030022  add     r3,#%0022
0c6c                 0d28  clr     @rr2
0c6e             61f2000e  ld      r2,|%0000000e|(r15)
0c72                 8122  add     r2,r2
0c74         14040100014a  ldl     rr4,#%0100014a
0c7a                 8125  add     r5,r2
0c7c                 0d48  clr     @rr4
0c7e                 9482  ldl     rr2,rr8
0c80                 a933  inc     r3,#4
0c82                 0d28  clr     @rr2
0c84                 94a6  ldl     rr6,rr10
0c86         5f0080000000  call    %00000000
0c8c     4d018100002a0204  cp      %0100002a,#%0204
0c94                 e9b0  jr      ge,%0bf6
0c96             210780f2  ld      r7,#%80f2
0c9a                 8366  sub     r6,r6
0c9c                 3f76  out     @r7,r6
0c9e             61f7000e  ld      r7,|%0000000e|(r15)
0ca2                 d1c6  calr    %0918
0ca4     5cf1080580000010  ldm     r8,<<%0>>%0010(r15),#6
0cac             010f001c  add     r15,#%001c
0cb0                 9e08  ret


!_mdread!
0cb2                 abf1  dec     r15,#2
0cb4             6ff70000  ld      |<<%0>>%00|(r15),r7
0cb8         14060000074e  ldl     rr6,#%0000074e
0cbe         140401000054  ldl     rr4,#%01000054
0cc4             61f30000  ld      r3,|<<%0>>%00|(r15)
0cc8                 bd21  ldk     r2,#1
0cca         5f0080000000  call    <<%0>>%0000
0cd0                 a9f1  inc     r15,#2
0cd2                 9e08  ret

!_mdwrite!
0cd4                 abf1  dec     r15,#2
0cd6             6ff70000  ld      |<<%0>>%00|(r15),r7
0cda         14060000074e  ldl     rr6,#%0000074e
0ce0         140401000054  ldl     rr4,#%01000054
0ce6             61f30000  ld      r3,|<<%0>>%00|(r15)
0cea                 8322  sub     r2,r2
0cec         5f0080000000  call    <<%0>>%0000
0cf2                 a9f1  inc     r15,#2
0cf4                 9e08  ret
