!zdopen!
0000                 abfb  dec     r15,#12
0002             5df60004  ldl     |<<%0>>%0004|(r15),rr6
0006         4d048100004e  test    <<%1>>%004e
000c         5e0e80000148  jp      nz,<<%0>>%0148
0012         69008100004e  inc     <<%1>>%004e,#1
0018             4df80008  clr     |<<%0>>%08|(r15)
001c                 e816  jr      %004a
001e             61f50008  ld      r5,|<<%0>>%08|(r15)
0022             19040006  mult    rr4,#%0006
0026         140600000002  ldl     rr6,#%00000002
002c                 8157  add     r7,r5
002e             0c650303  ldb     @rr6,#%03
0032             61f50008  ld      r5,|<<%0>>%08|(r15)
0036             19040006  mult    rr4,#%0006
003a         140600000003  ldl     rr6,#%00000003
0040                 8157  add     r7,r5
0042             0c651818  ldb     @rr6,#%18
0046             69f00008  inc     |<<%0>>%08|(r15),#1
004a             61f20008  ld      r2,|<<%0>>%08|(r15)
004e         4b0281000026  cp      r2,<<%1>>%0026
0054                 e1e4  jr      lt,%001e
0056         140600000000  ldl     rr6,#%00000000
005c         5f0080000000  call    <<%0>>%0000
0062         5d0280000000  ldl     <<%0>>%0000,rr2
0068                 9426  ldl     rr6,rr2
006a             070700ff  and     r7,#%00ff
006e                 a176  ld      r6,r7
0070         610780000000  ld      r7,<<%0>>%0000
0076                 a979  inc     r7,#10
0078                 3e7e  outb    @r7,rl6
007a         540680000000  ldl     rr6,<<%0>>%0000
0080             b365fff8  srll    rr6,#8
0084             070700ff  and     r7,#%00ff
0088                 a176  ld      r6,r7
008a         610780000000  ld      r7,<<%0>>%0000
0090                 a97a  inc     r7,#11
0092                 3e7e  outb    @r7,rl6
0094         540680000000  ldl     rr6,<<%0>>%0000
009a             b365fff0  srll    rr6,#16
009e             070700ff  and     r7,#%00ff
00a2                 a176  ld      r6,r7
00a4         610780000000  ld      r7,<<%0>>%0000
00aa                 a97b  inc     r7,#12
00ac                 3e7e  outb    @r7,rl6
00ae             21070016  ld      r7,#%0016
00b2                 dc1f  calr    %0876
00b4             4df80008  clr     |<<%0>>%08|(r15)
00b8                 e81c  jr      %00f2
00ba             61f50008  ld      r5,|<<%0>>%08|(r15)
00be             19040006  mult    rr4,#%0006
00c2         605b80000002  ldb     rl3,<<%0>>%0002(r5)
00c8                 b130  extsb   r3
00ca             61f50008  ld      r5,|<<%0>>%08|(r15)
00ce             19040006  mult    rr4,#%0006
00d2         605c80000003  ldb     rl4,<<%0>>%0003(r5)
00d8                 b140  extsb   r4
00da                 a137  ld      r7,r3
00dc                 9946  mult    rr6,r4
00de             61f20008  ld      r2,|<<%0>>%08|(r15)
00e2                 8122  add     r2,r2
00e4         140400000000  ldl     rr4,#%00000000
00ea                 8125  add     r5,r2
00ec                 2f47  ld      @rr4,r7
00ee             69f00008  inc     |<<%0>>%08|(r15),#1
00f2             61f20008  ld      r2,|<<%0>>%08|(r15)
00f6         4b0281000026  cp      r2,<<%1>>%0026
00fc                 e1de  jr      lt,%00ba
00fe         140200000000  ldl     rr2,#%00000000
0104         5d028000000e  ldl     <<%0>>%000e,rr2
010a         140200000000  ldl     rr2,#%00000000
0110         5d028000000a  ldl     <<%0>>%000a,rr2
0116         140600000000  ldl     rr6,#%00000000
011c         5f0080000000  call    <<%0>>%0000
0122         5d0280000000  ldl     <<%0>>%0000,rr2
0128         610780000000  ld      r7,<<%0>>%0000
012e                 a970  inc     r7,#1
0130                 8366  sub     r6,r6
0132                 3f76  out     @r7,r6
0134         610780000000  ld      r7,<<%0>>%0000
013a                 a974  inc     r7,#5
013c         610680000000  ld      r6,<<%0>>%0000
0142                 3f76  out     @r7,r6
0144                 bd7c  ldk     r7,#12
0146                 dc69  calr    %0876
0148             61f20006  ld      r2,|<<%0>>%06|(r15)
014c             070200f0  and     r2,#%00f0
0150             b329fffc  sra     r2,#4
0154             b3290003  sla     r2,#3
0158         61238100002a  ld      r3,<<%1>>%002a(r2)
015e                 8d34  test    r3
0160                 ee2a  jr      nz,%01b6
0162             61f20006  ld      r2,|<<%0>>%06|(r15)
0166             070200f0  and     r2,#%00f0
016a             b329fffc  sra     r2,#4
016e             b3290003  sla     r2,#3
0172         61238100002c  ld      r3,<<%1>>%002c(r2)
0178                 8d34  test    r3
017a                 ee1d  jr      nz,%01b6
017c             61f20006  ld      r2,|<<%0>>%06|(r15)
0180             070200f0  and     r2,#%00f0
0184             b329fffc  sra     r2,#4
0188                 a0a2  ldb     rh2,rl2
018a                 8ca8  clrb    rl2
018c         140400000000  ldl     rr4,#%00000000
0192                 8125  add     r5,r2
0194             5df40000  ldl     |<<%0>>%00|(r15),rr4
0198             61f70006  ld      r7,|<<%0>>%06|(r15)
019c             070700f0  and     r7,#%00f0
01a0         14040100002a  ldl     rr4,#%0100002a
01a6         1402000002cc  ldl     rr2,#%000002cc
01ac         5f0080000000  call    <<%0>>%0000
01b2                 8d24  test    r2
01b4                 ee28  jr      nz,%0206
01b6             61f20006  ld      r2,|<<%0>>%06|(r15)
01ba                 a02a  ldb     rl2,rh2
01bc                 b120  extsb   r2
01be             0b020020  cp      r2,#%0020
01c2                 ee0c  jr      nz,%01dc
01c4             61f20006  ld      r2,|<<%0>>%06|(r15)
01c8             070200f0  and     r2,#%00f0
01cc             b329fffc  sra     r2,#4
01d0             b3290003  sla     r2,#3
01d4         14040100002a  ldl     rr4,#%0100002a
01da                 e80b  jr      %01f2
01dc             61f20006  ld      r2,|<<%0>>%06|(r15)
01e0             070200f0  and     r2,#%00f0
01e4             b329fffc  sra     r2,#4
01e8             b3290003  sla     r2,#3
01ec         14040100002c  ldl     rr4,#%0100002c
01f2                 8125  add     r5,r2
01f4             61f20006  ld      r2,|<<%0>>%06|(r15)
01f8             0702000f  and     r2,#%000f
01fc                 bd31  ldk     r3,#1
01fe             b33b0200  sda     r3,r2
0202                 0543  or      r3,@rr4
0204                 2f43  ld      @rr4,r3
0206                 a9fb  inc     r15,#12
0208                 9e08  ret

!zdclose!
020a                 abf3  dec     r15,#4
020c             5df60000  ldl     |<<%0>>%00|(r15),rr6
0210             61f20002  ld      r2,|<<%0>>%02|(r15)
0214                 a02a  ldb     rl2,rh2
0216                 b120  extsb   r2
0218             0b020020  cp      r2,#%0020
021c                 ee15  jr      nz,%0248
021e             070700f0  and     r7,#%00f0
0222             b379fffc  sra     r7,#4
0226             b3790003  sla     r7,#3
022a         14020100002a  ldl     rr2,#%0100002a
0230                 8173  add     r3,r7
0232             61f70002  ld      r7,|<<%0>>%02|(r15)
0236             0707000f  and     r7,#%000f
023a                 bd41  ldk     r4,#1
023c             b34b0700  sda     r4,r7
0240                 8d40  com     r4
0242                 0724  and     r4,@rr2
0244                 2f24  ld      @rr2,r4
0246                 e816  jr      %0274
0248             61f20002  ld      r2,|<<%0>>%02|(r15)
024c             070200f0  and     r2,#%00f0
0250             b329fffc  sra     r2,#4
0254             b3290003  sla     r2,#3
0258         14040100002c  ldl     rr4,#%0100002c
025e                 8125  add     r5,r2
0260             61f20002  ld      r2,|<<%0>>%02|(r15)
0264             0702000f  and     r2,#%000f
0268                 bd31  ldk     r3,#1
026a             b33b0200  sda     r3,r2
026e                 8d30  com     r3
0270                 0743  and     r3,@rr4
0272                 2f43  ld      @rr4,r3
0274             61f20002  ld      r2,|<<%0>>%02|(r15)
0278             070200f0  and     r2,#%00f0
027c             b329fffc  sra     r2,#4
0280             b3290003  sla     r2,#3
0284         61238100002a  ld      r3,<<%1>>%002a(r2)
028a                 8d34  test    r3
028c                 ee1d  jr      nz,%02c8
028e             61f20002  ld      r2,|<<%0>>%02|(r15)
0292             070200f0  and     r2,#%00f0
0296             b329fffc  sra     r2,#4
029a             b3290003  sla     r2,#3
029e         61238100002c  ld      r3,<<%1>>%002c(r2)
02a4                 8d34  test    r3
02a6                 ee10  jr      nz,%02c8
02a8             61f20002  ld      r2,|<<%0>>%02|(r15)
02ac             070200f0  and     r2,#%00f0
02b0             b329fffc  sra     r2,#4
02b4             b3290003  sla     r2,#3
02b8         14040100002e  ldl     rr4,#%0100002e
02be                 8125  add     r5,r2
02c0         140200000000  ldl     rr2,#%00000000
02c6                 1d42  ldl     @rr4,rr2
02c8                 a9f3  inc     r15,#4
02ca                 9e08  ret

!zdstrategy!
02cc             030f0016  sub     r15,#%0016
02d0     5cf908058000000a  ldm     <<%0>>%000a(r15),r8,#6
02d8                 946c  ldl     rr12,rr6
02da             35c2001e  ldl     rr2,rr12(#%001e)
02de                 bd20  ldk     r2,#0
02e0             07030001  and     r3,#%0001
02e4                 9c28  testl   rr2
02e6                 ee04  jr      nz,%02f0
02e8             31c20014  ld      r2,rr12(#%0014)
02ec                 a720  bit     r2,#0
02ee                 e60b  jr      z,%0306
02f0     4c05800000150e0e  ldb     %00000015,#%0e
02f8                 94c6  ldl     rr6,rr12
02fa         5f0080000000  call    %00000000
0300         5e088000042c  jp      %0000042c
0306             31c20012  ld      r2,rr12(#%0012)
030a             070200ff  and     r2,#%00ff
030e         4b0281000028  cp      r2,%01000028
0314                 e921  jr      ge,%0358
0316             31c20012  ld      r2,rr12(#%0012)
031a             0702000f  and     r2,#%000f
031e             b3290004  sla     r2,#4
0322                 a923  inc     r2,#4
0324             31c30012  ld      r3,rr12(#%0012)
0328             070300f0  and     r3,#%00f0
032c             b339fffc  sra     r3,#4
0330             b3390003  sla     r3,#3
0334         54348100002e  ldl     rr4,%0100002e(r3)
033a                 8125  add     r5,r2
033c             35c2001a  ldl     rr2,rr12(#%001a)
0340             31c60014  ld      r6,rr12(#%0014)
0344                 bd00  ldk     r0,#0
0346                 a161  ld      r1,r6
0348         1600000001ff  addl    rr0,#%000001ff
034e             b30dfff7  sral    rr0,#9
0352                 9602  addl    rr2,rr0
0354                 1042  cpl     rr2,@rr4
0356                 e307  jr      ule,%0366
0358                 25c2  set     @rr12,#2
035a                 94c2  ldl     rr2,rr12
035c             01030022  add     r3,#%0022
0360             0d250006  ld      @rr2,#%0006
0364                 e8c9  jr      %02f8
0366             31c20012  ld      r2,rr12(#%0012)
036a             070200f0  and     r2,#%00f0
036e             b329fffc  sra     r2,#4
0372             6ff20008  ld      |%00000008|(r15),r2
0376             31c20012  ld      r2,rr12(#%0012)
037a             0702000f  and     r2,#%000f
037e             b3290004  sla     r2,#4
0382             31c30012  ld      r3,rr12(#%0012)
0386             070300f0  and     r3,#%00f0
038a             b339fffc  sra     r3,#4
038e             b3390003  sla     r3,#3
0392         54348100002e  ldl     rr4,%0100002e(r3)
0398             75460200  ldl     rr6,rr4(r2)
039c             35c2001a  ldl     rr2,rr12(#%001a)
03a0                 8173  add     r3,r7
03a2                 a139  ld      r9,r3
03a4             61f20008  ld      r2,|%00000008|(r15)
03a8                 8122  add     r2,r2
03aa         140600000000  ldl     rr6,#%00000000
03b0                 8127  add     r7,r2
03b2                 bd20  ldk     r2,#0
03b4                 1b62  div     rr2,@rr6
03b6                 94c6  ldl     rr6,rr12
03b8             01070022  add     r7,#%0022
03bc                 2f63  ld      @rr6,r3
03be                 a138  ld      r8,r3
03c0             31c20014  ld      r2,rr12(#%0014)
03c4                 94c6  ldl     rr6,rr12
03c6             01070024  add     r7,#%0024
03ca                 2f62  ld      @rr6,r2
03cc                 7d22  ldctl   r2,fcw
03ce                 7c01  di      vi
03d0         540a8000000a  ldl     rr10,%0000000a
03d6                 e808  jr      %03e8
03d8                 94a2  ldl     rr2,rr10
03da             01030022  add     r3,#%0022
03de                 0b28  cp      r8,@rr2
03e0                 e707  jr      c,%03f0
03e2             35a2000a  ldl     rr2,rr10(#%000a)
03e6                 942a  ldl     rr10,rr2
03e8         100a00000000  cpl     rr10,#%00000000
03ee                 eef4  jr      nz,%03d8
03f0                 94c2  ldl     rr2,rr12
03f2                 a939  inc     r3,#10
03f4                 1d2a  ldl     @rr2,rr10
03f6             35a2000e  ldl     rr2,rr10(#%000e)
03fa                 94c4  ldl     rr4,rr12
03fc                 a95d  inc     r5,#14
03fe                 1d42  ldl     @rr4,rr2
0400                 a939  inc     r3,#10
0402                 1d2c  ldl     @rr2,rr12
0404                 94a2  ldl     rr2,rr10
0406                 a93d  inc     r3,#14
0408                 1d2c  ldl     @rr2,rr12
040a         54028100004a  ldl     rr2,%0100004a
0410         100200000000  cpl     rr2,#%00000000
0416                 ee03  jr      nz,%041e
0418         5d0c8100004a  ldl     %0100004a,rr12
041e                 7d22  ldctl   r2,fcw
0420                 7c05  ei      vi
0422         4c0480000014  testb   %00000014
0428                 ee01  jr      nz,%042c
042a                 dff9  calr    %043a
042c     5cf108058000000a  ldm     r8,<<%0>>%000a(r15),#6
0434             010f0016  add     r15,#%0016
0438                 9e08  ret

!zdstart!
043a             030f0012  sub     r15,#%0012
043e     5cf9090480000008  ldm     <<%0>>%0008(r15),r9,#5
0446         540c8100004a  ldl     rr12,<<%1>>%004a
044c         100c00000000  cpl     rr12,#%00000000
0452         5e06800005f4  jp      z,<<%0>>%05f4
0458         680080000014  incb    <<%0>>%0014,#1
045e             31c20012  ld      r2,rr12(#%0012)
0462             0702000f  and     r2,#%000f
0466             b3290004  sla     r2,#4
046a             31c30012  ld      r3,rr12(#%0012)
046e             070300f0  and     r3,#%00f0
0472             b339fffc  sra     r3,#4
0476             b3390003  sla     r3,#3
047a         54348100002e  ldl     rr4,<<%1>>%002e(r3)
0480             75460200  ldl     rr6,rr4(r2)
0484             35c2001a  ldl     rr2,rr12(#%001a)
0488                 8173  add     r3,r7
048a                 a13b  ld      r11,r3
048c         610780000000  ld      r7,<<%0>>%0000
0492                 a97f  inc     r7,#16
0494                 3c7a  inb     rl2,@r7
0496                 8822  xorb    rh2,rh2
0498             07020080  and     r2,#%0080
049c                 8d24  test    r2
049e                 ee06  jr      nz,%04ac
04a0         140601000050  ldl     rr6,#%01000050
04a6         5f0080000000  call    <<%0>>%0000
04ac             31c20012  ld      r2,rr12(#%0012)
04b0             070200f0  and     r2,#%00f0
04b4             b329fffc  sra     r2,#4
04b8                 a129  ld      r9,r2
04ba         610780000000  ld      r7,<<%0>>%0000
04c0                 a970  inc     r7,#1
04c2                 a196  ld      r6,r9
04c4                 3f76  out     @r7,r6
04c6                 a193  ld      r3,r9
04c8             19020006  mult    rr2,#%0006
04cc         603a80000003  ldb     rl2,<<%0>>%0003(r3)
04d2                 b120  extsb   r2
04d4                 a1b7  ld      r7,r11
04d6                 bd60  ldk     r6,#0
04d8                 9b26  div     rr6,r2
04da                 a193  ld      r3,r9
04dc             19020006  mult    rr2,#%0006
04e0         603a80000002  ldb     rl2,<<%0>>%0002(r3)
04e6                 b120  extsb   r2
04e8                 a175  ld      r5,r7
04ea                 bd40  ldk     r4,#0
04ec                 9b24  div     rr4,r2
04ee                 a146  ld      r6,r4
04f0         610780000000  ld      r7,<<%0>>%0000
04f6                 a971  inc     r7,#2
04f8                 3f76  out     @r7,r6
04fa                 a192  ld      r2,r9
04fc                 8192  add     r2,r9
04fe         140400000000  ldl     rr4,#%00000000
0504                 8125  add     r5,r2
0506                 a1b7  ld      r7,r11
0508                 bd60  ldk     r6,#0
050a                 1b46  div     rr6,@rr4
050c                 a17a  ld      r10,r7
050e             070700ff  and     r7,#%00ff
0512                 a176  ld      r6,r7
0514         610780000000  ld      r7,<<%0>>%0000
051a                 a972  inc     r7,#3
051c                 3f76  out     @r7,r6
051e         610780000000  ld      r7,<<%0>>%0000
0524                 a973  inc     r7,#4
0526                 a1a6  ld      r6,r10
0528                 a06e  ldb     rl6,rh6
052a                 8c68  clrb    rh6
052c             070600ff  and     r6,#%00ff
0530                 3f76  out     @r7,r6
0532                 a193  ld      r3,r9
0534             19020006  mult    rr2,#%0006
0538         603a80000003  ldb     rl2,<<%0>>%0003(r3)
053e                 b120  extsb   r2
0540                 a1b7  ld      r7,r11
0542                 bd60  ldk     r6,#0
0544                 9b26  div     rr6,r2
0546         610780000000  ld      r7,<<%0>>%0000
054c                 a974  inc     r7,#5
054e                 3f76  out     @r7,r6
0550             31c70024  ld      r7,rr12(#%0024)
0554             2106fc00  ld      r6,#%fc00
0558         5f0080000000  call    <<%0>>%0000
055e                 a12a  ld      r10,r2
0560                 a320  res     r2,#0
0562                 b324  rr      r2,#1
0564             070200ff  and     r2,#%00ff
0568             6ff20006  ld      |<<%0>>%06|(r15),r2
056c         610780000000  ld      r7,<<%0>>%0000
0572                 a977  inc     r7,#8
0574             61f60006  ld      r6,|<<%0>>%06|(r15)
0578                 3f76  out     @r7,r6
057a         610780000000  ld      r7,<<%0>>%0000
0580                 a978  inc     r7,#9
0582                 a1a6  ld      r6,r10
0584                 a360  res     r6,#0
0586                 b364  rr      r6,#1
0588                 a06e  ldb     rl6,rh6
058a                 8c68  clrb    rh6
058c             070600ff  and     r6,#%00ff
0590                 3f76  out     @r7,r6
0592             35c6001e  ldl     rr6,rr12(#%001e)
0596             070700fe  and     r7,#%00fe
059a                 a176  ld      r6,r7
059c         610780000000  ld      r7,<<%0>>%0000
05a2                 a979  inc     r7,#10
05a4                 3f76  out     @r7,r6
05a6             35c6001e  ldl     rr6,rr12(#%001e)
05aa             b365fff8  srll    rr6,#8
05ae             070700ff  and     r7,#%00ff
05b2                 a176  ld      r6,r7
05b4         610780000000  ld      r7,<<%0>>%0000
05ba                 a97a  inc     r7,#11
05bc                 3f76  out     @r7,r6
05be             35c6001e  ldl     rr6,rr12(#%001e)
05c2             b365fff0  srll    rr6,#16
05c6             070700ff  and     r7,#%00ff
05ca                 a176  ld      r6,r7
05cc         610780000000  ld      r7,<<%0>>%0000
05d2                 a97b  inc     r7,#12
05d4                 3f76  out     @r7,r6
05d6                 27c0  bit     @rr12,#0
05d8                 e603  jr      z,%05e0
05da             21060021  ld      r6,#%0021
05de                 e802  jr      %05e4
05e0             21060022  ld      r6,#%0022
05e4         610780000000  ld      r7,<<%0>>%0000
05ea                 3f76  out     @r7,r6
05ec     4d05800000000001  ld      <<%0>>%0000,#%0001
05f4     5cf1090480000008  ldm     r9,<<%0>>%0008(r15),#5
05fc             010f0012  add     r15,#%0012
0600                 9e08  ret

!zdint!
0602                 abfb  dec     r15,#12
0604     5cf90a0380000004  ldm     <<%0>>%0004(r15),r10,#4
060c                 946c  ldl     rr12,rr6
060e         4d0880000000  clr     <<%0>>%0000
0614     4d0580000000000a  ld      <<%0>>%0000,#%000a
061c                 7d22  ldctl   r2,fcw
061e                 7c05  ei      vi
0620         4c0480000014  testb   <<%0>>%0014
0626                 ee0b  jr      nz,%063e
0628             31c50020  ld      r5,rr12(#%0020)
062c         14060100006a  ldl     rr6,#%0100006a
0632         5f0080000000  call    <<%0>>%0000
0638         5e08800007ba  jp      <<%0>>%07ba
063e         4c0880000014  clrb    <<%0>>%0014
0644         540a8100004a  ldl     rr10,<<%1>>%004a
064a             31c20020  ld      r2,rr12(#%0020)
064e             07020100  and     r2,#%0100
0652                 8d24  test    r2
0654                 ee25  jr      nz,%06a0
0656             31a70024  ld      r7,rr10(#%0024)
065a             2106fc00  ld      r6,#%fc00
065e         5f0080000000  call    <<%0>>%0000
0664                 94a4  ldl     rr4,rr10
0666             01050024  add     r5,#%0024
066a                 2143  ld      r3,@rr4
066c                 8323  sub     r3,r2
066e                 2f43  ld      @rr4,r3
0670                 8d34  test    r3
0672                 e660  jr      z,%0734
0674                 94a2  ldl     rr2,rr10
0676             0103001a  add     r3,#%001a
067a                 1424  ldl     rr4,@rr2
067c         16040000007e  addl    rr4,#%0000007e
0682                 1d24  ldl     @rr2,rr4
0684                 94a2  ldl     rr2,rr10
0686             0103001e  add     r3,#%001e
068a                 1424  ldl     rr4,@rr2
068c         16040000fc00  addl    rr4,#%0000fc00
0692                 1d24  ldl     @rr2,rr4
0694         4c0880000015  clrb    <<%0>>%0015
069a         5e08800007a8  jp      <<%0>>%07a8
06a0             31a70012  ld      r7,rr10(#%0012)
06a4             070700f0  and     r7,#%00f0
06a8             b379fffc  sra     r7,#4
06ac                 df52  calr    %080a
06ae         600a80000005  ldb     rl2,<<%0>>%0005
06b4                 b120  extsb   r2
06b6                 a722  bit     r2,#2
06b8                 e621  jr      z,%06fc
06ba             31a60012  ld      r6,rr10(#%0012)
06be             070600f0  and     r6,#%00f0
06c2             b369fffc  sra     r6,#4
06c6         610780000000  ld      r7,<<%0>>%0000
06cc                 a970  inc     r7,#1
06ce                 3e7e  outb    @r7,rl6
06d0             21070013  ld      r7,#%0013
06d4                 df30  calr    %0876
06d6             31a70012  ld      r7,rr10(#%0012)
06da             070700f0  and     r7,#%00f0
06de             b379fffc  sra     r7,#4
06e2                 df6d  calr    %080a
06e4         600a80000005  ldb     rl2,<<%0>>%0005
06ea                 b120  extsb   r2
06ec                 a720  bit     r2,#0
06ee                 e606  jr      z,%06fc
06f0         14060100008e  ldl     rr6,#%0100008e
06f6         5f0080000000  call    <<%0>>%0000
06fc         4c0480000015  testb   <<%0>>%0015
0702                 e607  jr      z,%0712
0704             31c50020  ld      r5,rr12(#%0020)
0708                 94a6  ldl     rr6,rr10
070a                 8344  sub     r4,r4
070c         5f0080000000  call    <<%0>>%0000
0712                 bd74  ldk     r7,#4
0714                 df50  calr    %0876
0716         680080000015  incb    <<%0>>%0015,#1
071c     4c01800000150404  cpb     %00000015,#%04
0724                 e141  jr      lt,%07a8
0726         1406010000ae  ldl     rr6,#%010000ae
072c         5f0080000000  call    %00000000
0732                 25a2  set     @rr10,#2
0734             35a2000e  ldl     rr2,rr10(#%000e)
0738             35a4000a  ldl     rr4,rr10(#%000a)
073c                 a95d  inc     r5,#14
073e                 1d42  ldl     @rr4,rr2
0740                 a939  inc     r3,#10
0742             35a4000a  ldl     rr4,rr10(#%000a)
0746                 1d24  ldl     @rr2,rr4
0748         4d0481000068  test    %01000068
074e                 e603  jr      z,%0756
0750             35a2000a  ldl     rr2,rr10(#%000a)
0754                 e802  jr      %075a
0756             35a2000e  ldl     rr2,rr10(#%000e)
075a         5d028100004a  ldl     %0100004a,rr2
0760         100200000000  cpl     rr2,#%00000000
0766                 ee14  jr      nz,%0790
0768         4d0481000068  test    %01000068
076e                 ee02  jr      nz,%0774
0770                 bd21  ldk     r2,#1
0772                 e801  jr      %0776
0774                 bd20  ldk     r2,#0
0776         6f0281000068  ld      %01000068,r2
077c                 8d24  test    r2
077e                 e603  jr      z,%0786
0780             35a2000a  ldl     rr2,rr10(#%000a)
0784                 e802  jr      %078a
0786             35a2000e  ldl     rr2,rr10(#%000e)
078a         5d028100004a  ldl     %0100004a,rr2
0790                 94a2  ldl     rr2,rr10
0792             01030022  add     r3,#%0022
0796                 0d28  clr     @rr2
0798                 8322  sub     r2,r2
079a         6e0a80000015  ldb     %00000015,rl2
07a0                 94a6  ldl     rr6,rr10
07a2         5f0080000000  call    %00000000
07a8                 d1b8  calr    %043a
07aa                 7d22  ldctl   r2,fcw
07ac                 7c01  di      vi
07ae         610780000000  ld      r7,%00000000
07b4                 a97f  inc     r7,#16
07b6                 8366  sub     r6,r6
07b8                 3f76  out     @r7,r6
07ba     5cf10a0380000004  ldm     r10,<<%0>>%0004(r15),#4
07c2                 a9fb  inc     r15,#12
07c4                 9e08  ret

!zdread!
07c6                 abf1  dec     r15,#2
07c8             6ff70000  ld      |<<%0>>%00|(r15),r7
07cc         1406000002cc  ldl     rr6,#%000002cc
07d2         140400000000  ldl     rr4,#%00000000
07d8             61f30000  ld      r3,|<<%0>>%00|(r15)
07dc                 bd21  ldk     r2,#1
07de         5f0080000000  call    <<%0>>%0000
07e4                 a9f1  inc     r15,#2
07e6                 9e08  ret

!zdwrite!
07e8                 abf1  dec     r15,#2
07ea             6ff70000  ld      |<<%0>>%00|(r15),r7
07ee         1406000002cc  ldl     rr6,#%000002cc
07f4         140400000000  ldl     rr4,#%00000000
07fa             61f30000  ld      r3,|<<%0>>%00|(r15)
07fe                 8322  sub     r2,r2
0800         5f0080000000  call    <<%0>>%0000
0806                 a9f1  inc     r15,#2


!read_status!
0808                 9e08  ret
080a                 abf1  dec     r15,#2
080c             6ff70000  ld      |<<%0>>%00|(r15),r7
0810         610780000000  ld      r7,<<%0>>%0000
0816                 a970  inc     r7,#1
0818             61f60000  ld      r6,|<<%0>>%00|(r15)
081c                 3f76  out     @r7,r6
081e         540680000000  ldl     rr6,<<%0>>%0000
0824                 bd60  ldk     r6,#0
0826             070700ff  and     r7,#%00ff
082a                 a176  ld      r6,r7
082c         610780000000  ld      r7,<<%0>>%0000
0832                 a979  inc     r7,#10
0834                 3e7e  outb    @r7,rl6
0836         540680000000  ldl     rr6,<<%0>>%0000
083c             b365fff8  srll    rr6,#8
0840                 bd60  ldk     r6,#0
0842             070700ff  and     r7,#%00ff
0846                 a176  ld      r6,r7
0848         610780000000  ld      r7,<<%0>>%0000
084e                 a97a  inc     r7,#11
0850                 3e7e  outb    @r7,rl6
0852         540680000000  ldl     rr6,<<%0>>%0000
0858             b365fff0  srll    rr6,#16
085c                 bd60  ldk     r6,#0
085e             070700ff  and     r7,#%00ff
0862                 a176  ld      r6,r7
0864         610780000000  ld      r7,<<%0>>%0000
086a                 a97b  inc     r7,#12
086c                 3e7e  outb    @r7,rl6
086e                 bd73  ldk     r7,#3
0870                 dffe  calr    %0876
0872                 a9f1  inc     r15,#2
0874                 9e08  ret

!polled_command!
0876                 abf3  dec     r15,#4
0878             6ff70000  ld      |<<%0>>%00|(r15),r7
087c         610780000000  ld      r7,<<%0>>%0000
0882             60fe0001  ldb     rl6,|<<%0>>%01|(r15)
0886                 b160  extsb   r6
0888                 3e7e  outb    @r7,rl6
088a         610780000000  ld      r7,<<%0>>%0000
0890                 a97f  inc     r7,#16
0892                 3c7a  inb     rl2,@r7
0894                 8822  xorb    rh2,rh2
0896             07020080  and     r2,#%0080
089a                 8d24  test    r2
089c                 e6f6  jr      z,%088a
089e         610780000000  ld      r7,<<%0>>%0000
08a4                 a97f  inc     r7,#16
08a6                 3c7a  inb     rl2,@r7
08a8                 8822  xorb    rh2,rh2
08aa                 a721  bit     r2,#1
08ac                 e60c  jr      z,%08c6
08ae         1406010000c0  ldl     rr6,#%010000c0
08b4             60fd0001  ldb     rl5,|<<%0>>%01|(r15)
08b8                 c500  ldb     rh5,#%00
08ba         5f0080000000  call    <<%0>>%0000
08c0             2102ffff  ld      r2,#%ffff
08c4                 e80b  jr      %08dc
08c6         610780000000  ld      r7,<<%0>>%0000
08cc                 a97f  inc     r7,#16
08ce                 3c7a  inb     rl2,@r7
08d0                 8822  xorb    rh2,rh2
08d2             07020008  and     r2,#%0008
08d6                 8d24  test    r2
08d8                 e6f6  jr      z,%08c6
08da                 8322  sub     r2,r2
08dc                 a9f3  inc     r15,#4
08de                 9e08  ret